(dp0
Vinfo
p1
(dp2
VnorthAt
p3
V315
p4
ssVmap
p5
(lp6
(dp7
Vy
p8
V2436
p9
sVx
p10
V0
p11
sVnodeId
p12
V1
p13
sVlinkTo
p14
V2 
p15
sVnodeName
p16
VTO LT15
p17
sa(dp18
g8
V2436
p19
sg10
V2152
p20
sVnodeId
p21
V2
p22
sVlinkTo
p23
V1, 3, 4  
p24
sVnodeName
p25
VP2
p26
sa(dp27
g8
V731
p28
sg10
V2152
p29
sVnodeId
p30
V3
p31
sVlinkTo
p32
g22
sVnodeName
p33
VLinkway
p34
sa(dp35
g8
V2436
p36
sg10
V2883
p37
sVnodeId
p38
V4
p39
sVlinkTo
p40
V2, 5, 6, 7
p41
sVnodeName
p42
VP4
p43
sa(dp44
g8
V1787
p45
sg10
V2883
p46
sVnodeId
p47
V5
p48
sVlinkTo
p49
V4, 8 
p50
sVnodeName
p51
VP5
p52
sa(dp53
g8
V2924
p54
sg10
V2883
p55
sVnodeId
p56
V6
p57
sVlinkTo
p58
g39
sVnodeName
p59
VSeminar Room 6
p60
sa(dp61
g8
V2436
p62
sg10
V3776
p63
sVnodeId
p64
V7
p65
sVlinkTo
p66
V4, 10
p67
sVnodeName
p68
VLobby 
p69
sa(dp70
g8
V1787
p71
sg10
V3330
p72
sVnodeId
p73
V8
p74
sVlinkTo
p75
V5, 9, 10 
p76
sVnodeName
p77
VP8
p78
sa(dp79
g8
V934
p80
sg10
V3330
p81
sVnodeId
p82
V9
p83
sVlinkTo
p84
g74
sVnodeName
p85
VSeminar Room 2
p86
sa(dp87
g8
V1787
p88
sg10
V3776
p89
sVnodeId
p90
V10
p91
sVlinkTo
p92
V7, 8, 11
p93
sVnodeName
p94
VP10
p95
sa(dp96
g8
V1787
p97
sg10
V5603
p98
sVnodeId
p99
V11
p100
sVlinkTo
p101
V10, 12, 13, 14
p102
sVnodeName
p103
VStudent Area
p104
sa(dp105
g8
V2924
p106
sg10
V5603
p107
sVnodeId
p108
V12
p109
sVlinkTo
p110
V11
p111
sVnodeName
p112
VSeminar Room 1
p113
sa(dp114
g8
V609
p115
sg10
V5603
p116
sVnodeId
p117
V13
p118
sVlinkTo
p119
V11, 36
p120
sVnodeName
p121
VP13
p122
sa(dp123
g8
V1787
p124
sg10
V7065
p125
sVnodeId
p126
V14
p127
sVlinkTo
p128
V11, 15, 37 
p129
sVnodeName
p130
VP14
p131
sa(dp132
g8
V2802
p133
sg10
V7065
p134
sVnodeId
p135
V15
p136
sVlinkTo
p137
V14, 32 
p138
sVnodeName
p139
VP15
p140
sa(dp141
g8
V731
p142
sg10
V7065
p143
sVnodeId
p144
V16
p145
sVlinkTo
p146
V18, 37
p147
sVnodeName
p148
VP16
p149
sa(dp150
g8
V2802
p151
sg10
V9014
p152
sVnodeId
p153
V17
p154
sVlinkTo
p155
V39, 19, 21 
p156
sVnodeName
p157
VP17
p158
sa(dp159
g8
V731
p160
sg10
V8283
p161
sVnodeId
p162
V18
p163
sVlinkTo
p164
V16, 20, 22
p165
sVnodeName
p166
VP18
p167
sa(dp168
g8
V2193
p169
sg10
V9014
p170
sVnodeId
p171
V19
p172
sVlinkTo
p173
V17
p174
sVnodeName
p175
VExecutive Classroom
p176
sa(dp177
g8
V1056
p178
sg10
V8283
p179
sVnodeId
p180
V20
p181
sVlinkTo
p182
V18
p183
sVnodeName
p184
VTutorial Room 11
p185
sa(dp186
g8
V2802
p187
sg10
V9460
p188
sVnodeId
p189
V21
p190
sVlinkTo
p191
V17, 23, 24 
p192
sVnodeName
p193
VP21
p194
sa(dp195
g8
V731
p196
sg10
V9744
p197
sVnodeId
p198
V22
p199
sVlinkTo
p200
V18, 25, 34
p201
sVnodeName
p202
VP22
p203
sa(dp204
g8
V3248
p205
sg10
V9460
p206
sVnodeId
p207
V23
p208
sVlinkTo
p209
V21
p210
sVnodeName
p211
VSeminar Room 9
p212
sa(dp213
g8
V2802
p214
sg10
V11003
p215
sVnodeId
p216
V24
p217
sVlinkTo
p218
V21, 27, 28
p219
sVnodeName
p220
VP24
p221
sa(dp222
g8
V1056
p223
sg10
V9744
p224
sVnodeId
p225
V25
p226
sVlinkTo
p227
V22
p228
sVnodeName
p229
VNUS Hacker's Room
p230
sa(dp231
g8
V691
p232
sg10
V11003
p233
sVnodeId
p234
V26
p235
sVlinkTo
p236
V34, 28, 29 
p237
sVnodeName
p238
VP26
p239
sa(dp240
g8
V3248
p241
sg10
V11003
p242
sVnodeId
p243
V27
p244
sVlinkTo
p245
V24 
p246
sVnodeName
p247
VSeminar Room 11
p248
sa(dp249
g8
V1259
p250
sg10
V11003
p251
sVnodeId
p252
V28
p253
sVlinkTo
p254
V24, 26, 30
p255
sVnodeName
p256
VP28
p257
sa(dp258
g8
V691
p259
sg10
V11571
p260
sVnodeId
p261
V29
p262
sVlinkTo
p263
V26, 31 
p264
sVnodeName
p265
VP29
p266
sa(dp267
g8
V731
p268
sg10
V12180
p269
sVnodeId
p270
V30
p271
sVlinkTo
p272
V28  
p273
sVnodeName
p274
VTO Canteen
p275
sa(dp276
g8
V406
p277
sg10
V11815
p278
sVnodeId
p279
V31
p280
sVlinkTo
p281
V29 
p282
sVnodeName
p283
VTO 2-2-1
p284
sa(dp285
g8
V2802
p286
sg10
V7552
p287
sVnodeId
p288
V32
p289
sVlinkTo
p290
V15, 33, 39 
p291
sVnodeName
p292
VP32
p293
sa(dp294
g8
V3086
p295
sg10
V7552
p296
sVnodeId
p297
V33
p298
sVlinkTo
p299
V32
p300
sVnodeName
p301
VSeminar Room 7
p302
sa(dp303
g8
V731
p304
sg10
V10272
p305
sVnodeId
p306
V34
p307
sVlinkTo
p308
V22, 26, 35 
p309
sVnodeName
p310
VP34
p311
sa(dp312
g8
V447
p313
sg10
V10272
p314
sVnodeId
p315
V35
p316
sVlinkTo
p317
V34 
p318
sVnodeName
p319
VTutorial Room 5
p320
sa(dp321
g8
V609
p322
sg10
V4263
p323
sVnodeId
p324
V36
p325
sVlinkTo
p326
V13
p327
sVnodeName
p328
VCerebro
p329
sa(dp330
g8
V1543
p331
sg10
V7065
p332
sVnodeId
p333
V37
p334
sVlinkTo
p335
V14, 16, 38 
p336
sVnodeName
p337
VP37
p338
sa(dp339
g8
V1543
p340
sg10
V7552
p341
sVnodeId
p342
V38
p343
sVlinkTo
p344
V37
p345
sVnodeName
p346
VSR3 Front
p347
sa(dp348
g8
V2802
p349
sg10
V8811
p350
sVnodeId
p351
V39
p352
sVlinkTo
p353
V17, 32, 40 
p354
sVnodeName
p355
VP39
p356
sa(dp357
g8
V2436
p358
sg10
V8811
p359
sVnodeId
p360
V40
p361
sVlinkTo
p362
V39
p363
sVnodeName
p364
VSR3 Back
p365
sasVwifi
p366
(lp367
(dp368
g8
V2599
p369
sg10
V569
p370
sVmacAddr
p371
Ve8:ba:70:61:c9:60
p372
sVnodeId
p373
g13
sVnodeName
p374
Varc-0201-a
p375
sa(dp376
g8
V2599
p377
sg10
V2274
p378
sVmacAddr
p379
Ve8:ba:70:61:af:20
p380
sVnodeId
p381
g22
sVnodeName
p382
Varc-0202-a
p383
sa(dp384
g8
V731
p385
sg10
V2964
p386
sVmacAddr
p387
V04:da:d2:74:cf:30
p388
sVnodeId
p389
g31
sVnodeName
p390
Varc-0204-a
p391
sa(dp392
g8
V934
p393
sg10
V5400
p394
sVmacAddr
p395
Ve8:ba:70:52:3b:e0
p396
sVnodeId
p397
g39
sVnodeName
p398
Varc-0205-a
p399
sa(dp400
g8
V609
p401
sg10
V4060
p402
sVmacAddr
p403
Ve8:ba:70:52:bf:80
p404
sVnodeId
p405
g48
sVnodeName
p406
Varc-0205-b
p407
sa(dp408
g8
V2315
p409
sg10
V4263
p410
sVmacAddr
p411
Ve8:ba:70:52:0b:40
p412
sVnodeId
p413
g57
sVnodeName
p414
Varc-0206-a
p415
sa(dp416
g8
V2924
p417
sg10
V6578
p418
sVmacAddr
p419
Ve8:ba:70:52:1e:90
p420
sVnodeId
p421
g65
sVnodeName
p422
Varc-0206-b
p423
sa(dp424
g8
V2842
p425
sg10
V8445
p426
sVmacAddr
p427
Ve8:ba:70:52:ab:e0
p428
sVnodeId
p429
g74
sVnodeName
p430
Varc-0212-a
p431
sa(dp432
g8
V2964
p433
sg10
V10435
p434
sVmacAddr
p435
Ve8:ba:70:61:b3:50
p436
sVnodeId
p437
g83
sVnodeName
p438
Varc-0210-a
p439
sa(dp440
g8
V1706
p441
sg10
V7796
p442
sVmacAddr
p443
V50:06:04:8d:d0:10
p444
sVnodeId
p445
V10
p446
sVnodeName
p447
Varc-0212-b
p448
sa(dp449
g8
V1868
p450
sg10
V8608
p451
sVmacAddr
p452
V04:da:d2:74:c8:70
p453
sVnodeId
p454
V11
p455
sVnodeName
p456
Varc-0213-a
p457
sa(dp458
g8
V1097
p459
sg10
V10800
p460
sVmacAddr
p461
Ve8:ba:70:52:bd:80
p462
sVnodeId
p463
V12
p464
sVnodeName
p465
Varc-0214-a
p466
sa(dp467
g8
V731
p468
sg10
V9866
p469
sVmacAddr
p470
Ve8:ba:70:61:a8:80
p471
sVnodeId
p472
V13
p473
sVnodeName
p474
Varc-0239-a
p475
sa(dp476
g8
V934
p477
sg10
V6902
p478
sVmacAddr
p479
V28:93:fe:d3:8b:20
p480
sVnodeId
p481
V14
p482
sVnodeName
p483
Varc-0241-a
p484
sas.