(dp0
Vinfo
p1
(dp2
VnorthAt
p3
V305
p4
ssVmap
p5
(lp6
(dp7
Vy
p8
V4024
p9
sVx
p10
V61
p11
sVnodeId
p12
V1
p13
sVlinkTo
p14
V17
p15
sVnodeName
p16
VTO 1-2-31
p17
sa(dp18
g8
V2561
p19
sg10
V1585
p20
sVnodeId
p21
V2
p22
sVlinkTo
p23
V3, 5, 17
p24
sVnodeName
p25
VP2
p26
sa(dp27
g8
V2378
p28
sg10
V1342
p29
sVnodeId
p30
V3
p31
sVlinkTo
p32
g22
sVnodeName
p33
VUncle Soo's Office
p34
sa(dp35
g8
V2317
p36
sg10
V2134
p37
sVnodeId
p38
V4
p39
sVlinkTo
p40
V5
p41
sVnodeName
p42
VColin's Office
p43
sa(dp44
g8
V2195
p45
sg10
V1951
p46
sVnodeId
p47
g41
sVlinkTo
p48
V2, 4, 19
p49
sVnodeName
p50
VP5
p51
sa(dp52
g8
V1098
p53
sg10
V2988
p54
sVnodeId
p55
V6
p56
sVlinkTo
p57
V7, 11, 19
p58
sVnodeName
p59
VP6
p60
sa(dp61
g8
V732
p62
sg10
V3353
p63
sVnodeId
p64
V7
p65
sVlinkTo
p66
V6, 8
p67
sVnodeName
p68
VP7
p69
sa(dp70
g8
V732
p71
sg10
V4085
p72
sVnodeId
p73
V8
p74
sVlinkTo
p75
V7, 9, 10
p76
sVnodeName
p77
VP8
p78
sa(dp79
g8
V976
p80
sg10
V4085
p81
sVnodeId
p82
V9
p83
sVlinkTo
p84
g74
sVnodeName
p85
VDiscussion Room 6
p86
sa(dp87
g8
V732
p88
sg10
V8047
p89
sVnodeId
p90
V10
p91
sVlinkTo
p92
g74
sVnodeName
p93
VEnd of Corridor
p94
sa(dp95
g8
V1646
p96
sg10
V3475
p97
sVnodeId
p98
V11
p99
sVlinkTo
p100
V6, 12
p101
sVnodeName
p102
VGlass Door
p103
sa(dp104
g8
V1829
p105
sg10
V3780
p106
sVnodeId
p107
V12
p108
sVlinkTo
p109
V11, 13
p110
sVnodeName
p111
VWooden Door
p112
sa(dp113
g8
V2012
p114
sg10
V4146
p115
sVnodeId
p116
V13
p117
sVlinkTo
p118
V12, 14
p119
sVnodeName
p120
VAnother Door
p121
sa(dp122
g8
V2317
p123
sg10
V4329
p124
sVnodeId
p125
V14
p126
sVlinkTo
p127
V13, 15
p128
sVnodeName
p129
VStairwell
p130
sa(dp131
g8
V2744
p132
sg10
V3841
p133
sVnodeId
p134
V15
p135
sVlinkTo
p136
V14, 16
p137
sVnodeName
p138
VHalfway
p139
sa(dp140
g8
V2622
p141
sg10
V3719
p142
sVnodeId
p143
V16
p144
sVlinkTo
p145
V15
p146
sVnodeName
p147
VTO 2-3-11
p148
sa(dp149
g8
V2927
p150
sg10
V1159
p151
sVnodeId
p152
V17
p153
sVlinkTo
p154
V1, 2, 18
p155
sVnodeName
p156
VP17
p157
sa(dp158
g8
V2805
p159
sg10
V915
p160
sVnodeId
p161
V18
p162
sVlinkTo
p163
V17
p164
sVnodeName
p165
VBimlesh's Office
p166
sa(dp167
g8
V1464
p168
sg10
V2622
p169
sVnodeId
p170
V19
p171
sVlinkTo
p172
V5, 6, 20 
p173
sVnodeName
p174
VP19
p175
sa(dp176
g8
V1342
p177
sg10
V2378
p178
sVnodeId
p179
V20
p180
sVlinkTo
p181
V19
p182
sVnodeName
p183
VDamith's Office
p184
sasVwifi
p185
(lp186
(dp187
g8
V3658
p188
sg10
V366
p189
sVmacAddr
p190
Ve8:ba:70:61:b6:50
p191
sVnodeId
p192
g13
sVnodeName
p193
Varc-0215-a
p194
sa(dp195
g8
V2683
p196
sg10
V1464
p197
sVmacAddr
p198
V50:06:04:8d:ac:c0
p199
sVnodeId
p200
g22
sVnodeName
p201
Varc2-0261-a
p202
sa(dp203
g8
V1585
p204
sg10
V2500
p205
sVmacAddr
p206
Ve8:ba:70:61:a8:f0
p207
sVnodeId
p208
g31
sVnodeName
p209
Varc-0229-a
p210
sa(dp211
g8
V732
p212
sg10
V3841
p213
sVmacAddr
p214
Ve8:ba:70:52:3e:80
p215
sVnodeId
p216
g39
sVnodeName
p217
Varc2-0254-a
p218
sa(dp219
g8
V671
p220
sg10
V5548
p221
sVmacAddr
p222
Ve8:ba:70:61:ad:b0
p223
sVnodeId
p224
g41
sVnodeName
p225
Varc2-0250-a
p226
sa(dp227
g8
V671
p228
sg10
V7681
p229
sVmacAddr
p230
Ve8:ba:70:52:53:10
p231
sVnodeId
p232
g56
sVnodeName
p233
Varc2-0243-a
p234
sas.