(dp0
Vinfo
p1
(dp2
VnorthAt
p3
V305
p4
ssVmap
p5
(lp6
(dp7
Vy
p8
V4024
p9
sVx
p10
V61
p11
sVnodeId
p12
V1
p13
sVlinkTo
p14
V16
p15
sVnodeName
p16
VTO 1-3-18
p17
sa(dp18
g8
V1098
p19
sg10
V2988
p20
sVnodeId
p21
V2
p22
sVlinkTo
p23
V3, 7, 14 
p24
sVnodeName
p25
VP2
p26
sa(dp27
g8
V732
p28
sg10
V3353
p29
sVnodeId
p30
V3
p31
sVlinkTo
p32
V2, 4  
p33
sVnodeName
p34
VP3
p35
sa(dp36
g8
V732
p37
sg10
V3902
p38
sVnodeId
p39
V4
p40
sVlinkTo
p41
V3, 5, 12 
p42
sVnodeName
p43
VP4
p44
sa(dp45
g8
V976
p46
sg10
V3902
p47
sVnodeId
p48
V5
p49
sVlinkTo
p50
g40
sVnodeName
p51
VDiscussion Room 7
p52
sa(dp53
g8
V732
p54
sg10
V8047
p55
sVnodeId
p56
V6
p57
sVlinkTo
p58
V12
p59
sVnodeName
p60
VEnd of Corridor
p61
sa(dp62
g8
V1646
p63
sg10
V3475
p64
sVnodeId
p65
V7
p66
sVlinkTo
p67
V2, 8
p68
sVnodeName
p69
VGlass Door
p70
sa(dp71
g8
V1829
p72
sg10
V3780
p73
sVnodeId
p74
V8
p75
sVlinkTo
p76
V7, 9
p77
sVnodeName
p78
VWooden Door
p79
sa(dp80
g8
V2012
p81
sg10
V4146
p82
sVnodeId
p83
V9
p84
sVlinkTo
p85
V8, 10
p86
sVnodeName
p87
VAnother Door
p88
sa(dp89
g8
V2134
p90
sg10
V4207
p91
sVnodeId
p92
V10
p93
sVlinkTo
p94
V9, 11
p95
sVnodeName
p96
VStairwell
p97
sa(dp98
g8
V2622
p99
sg10
V3719
p100
sVnodeId
p101
V11
p102
sVlinkTo
p103
V10
p104
sVnodeName
p105
VTO 2-2-16
p106
sa(dp107
g8
V732
p108
sg10
V4085
p109
sVnodeId
p110
V12
p111
sVlinkTo
p112
V4, 6, 13
p113
sVnodeName
p114
VP12
p115
sa(dp116
g8
V976
p117
sg10
V4085
p118
sVnodeId
p119
V13
p120
sVlinkTo
p121
V12
p122
sVnodeName
p123
VDiscussion Room 8
p124
sa(dp125
g8
V1951
p126
sg10
V2134
p127
sVnodeId
p128
V14
p129
sVlinkTo
p130
V2, 15, 16 
p131
sVnodeName
p132
VP14
p133
sa(dp134
g8
V2012
p135
sg10
V2317
p136
sVnodeId
p137
V15
p138
sVlinkTo
p139
V14
p140
sVnodeName
p141
VHenry's Room
p142
sa(dp143
g8
V2500
p144
sg10
V1524
p145
sVnodeId
p146
V16
p147
sVlinkTo
p148
V1, 14
p149
sVnodeName
p150
VMysterious Pt
p151
sasVwifi
p152
(lp153
(dp154
g8
V2988
p155
sg10
V1037
p156
sVmacAddr
p157
Ve8:ba:70:52:51:70
p158
sVnodeId
p159
g13
sVnodeName
p160
Varc-0334-a
p161
sa(dp162
g8
V1829
p163
sg10
V2195
p164
sVmacAddr
p165
Ve8:ba:70:61:b1:60
p166
sVnodeId
p167
g22
sVnodeName
p168
Varc-0324-a
p169
sa(dp170
g8
V732
p171
sg10
V3719
p172
sVmacAddr
p173
V28:93:fe:c8:a8:e0
p174
sVnodeId
p175
g31
sVnodeName
p176
Varc2-0348-a
p177
sa(dp178
g8
V671
p179
sg10
V5487
p180
sVmacAddr
p181
V70:10:5c:7d:39:b0
p182
sVnodeId
p183
g40
sVnodeName
p184
Varc2-0318-a
p185
sa(dp186
g8
V732
p187
sg10
V7255
p188
sVmacAddr
p189
Ve8:ba:70:52:bf:b0
p190
sVnodeId
p191
g49
sVnodeName
p192
Varc2-0339-a
p193
sa(dp194
g8
V732
p195
sg10
V9205
p196
sVmacAddr
p197
Ve8:ba:70:52:c5:20
p198
sVnodeId
p199
g57
sVnodeName
p200
Varc2-0332-a
p201
sas.